
test_debug:     file format elf32-littlearm


Disassembly of section .init:

000082e4 <_init>:
    82e4:	e92d4010 	push	{r4, lr}
    82e8:	eb000020 	bl	8370 <call_gmon_start>
    82ec:	e8bd4010 	pop	{r4, lr}
    82f0:	e12fff1e 	bx	lr

Disassembly of section .plt:

000082f4 <.plt>:
    82f4:	e52de004 	push	{lr}		; (str lr, [sp, #-4]!)
    82f8:	e59fe004 	ldr	lr, [pc, #4]	; 8304 <_init+0x20>
    82fc:	e08fe00e 	add	lr, pc, lr
    8300:	e5bef008 	ldr	pc, [lr, #8]!
    8304:	00008cfc 	strdeq	r8, [r0], -ip
    8308:	e28fc600 	add	ip, pc, #0
    830c:	e28cca08 	add	ip, ip, #32768	; 0x8000
    8310:	e5bcfcfc 	ldr	pc, [ip, #3324]!	; 0xcfc
    8314:	e28fc600 	add	ip, pc, #0
    8318:	e28cca08 	add	ip, ip, #32768	; 0x8000
    831c:	e5bcfcf4 	ldr	pc, [ip, #3316]!	; 0xcf4
    8320:	e28fc600 	add	ip, pc, #0
    8324:	e28cca08 	add	ip, ip, #32768	; 0x8000
    8328:	e5bcfcec 	ldr	pc, [ip, #3308]!	; 0xcec
    832c:	e28fc600 	add	ip, pc, #0
    8330:	e28cca08 	add	ip, ip, #32768	; 0x8000
    8334:	e5bcfce4 	ldr	pc, [ip, #3300]!	; 0xce4

Disassembly of section .text:

00008338 <_start>:
    8338:	e59fc024 	ldr	ip, [pc, #36]	; 8364 <_start+0x2c>
    833c:	e3a0b000 	mov	fp, #0
    8340:	e49d1004 	pop	{r1}		; (ldr r1, [sp], #4)
    8344:	e1a0200d 	mov	r2, sp
    8348:	e52d2004 	push	{r2}		; (str r2, [sp, #-4]!)
    834c:	e52d0004 	push	{r0}		; (str r0, [sp, #-4]!)
    8350:	e59f0010 	ldr	r0, [pc, #16]	; 8368 <_start+0x30>
    8354:	e59f3010 	ldr	r3, [pc, #16]	; 836c <_start+0x34>
    8358:	e52dc004 	push	{ip}		; (str ip, [sp, #-4]!)
    835c:	ebffffec 	bl	8314 <_init+0x30>
    8360:	ebffffe8 	bl	8308 <_init+0x24>
    8364:	000084dc 	ldrdeq	r8, [r0], -ip
    8368:	00008480 	andeq	r8, r0, r0, lsl #9
    836c:	000084e0 	andeq	r8, r0, r0, ror #9

00008370 <call_gmon_start>:
    8370:	e59f301c 	ldr	r3, [pc, #28]	; 8394 <call_gmon_start+0x24>
    8374:	e59f201c 	ldr	r2, [pc, #28]	; 8398 <call_gmon_start+0x28>
    8378:	e08f3003 	add	r3, pc, r3
    837c:	e7932002 	ldr	r2, [r3, r2]
    8380:	e92d4010 	push	{r4, lr}
    8384:	e3520000 	cmp	r2, #0
    8388:	1bffffe4 	blne	8320 <_init+0x3c>
    838c:	e8bd4010 	pop	{r4, lr}
    8390:	e12fff1e 	bx	lr
    8394:	00008c80 	andeq	r8, r0, r0, lsl #25
    8398:	0000001c 	andeq	r0, r0, ip, lsl r0

0000839c <__do_global_dtors_aux>:
    839c:	e59f3010 	ldr	r3, [pc, #16]	; 83b4 <__do_global_dtors_aux+0x18>
    83a0:	e5d32000 	ldrb	r2, [r3]
    83a4:	e3520000 	cmp	r2, #0
    83a8:	02822001 	addeq	r2, r2, #1
    83ac:	05c32000 	strbeq	r2, [r3]
    83b0:	e12fff1e 	bx	lr
    83b4:	00011028 	andeq	r1, r1, r8, lsr #32

000083b8 <frame_dummy>:
    83b8:	e59f0024 	ldr	r0, [pc, #36]	; 83e4 <frame_dummy+0x2c>
    83bc:	e92d4010 	push	{r4, lr}
    83c0:	e5903000 	ldr	r3, [r0]
    83c4:	e3530000 	cmp	r3, #0
    83c8:	0a000003 	beq	83dc <frame_dummy+0x24>
    83cc:	e59f3014 	ldr	r3, [pc, #20]	; 83e8 <frame_dummy+0x30>
    83d0:	e3530000 	cmp	r3, #0
    83d4:	11a0e00f 	movne	lr, pc
    83d8:	112fff13 	bxne	r3
    83dc:	e8bd4010 	pop	{r4, lr}
    83e0:	e12fff1e 	bx	lr
    83e4:	00010f0c 	andeq	r0, r1, ip, lsl #30
    83e8:	00000000 	andeq	r0, r0, r0

000083ec <C>:
    83ec:	e52db004 	push	{fp}		; (str fp, [sp, #-4]!)
    83f0:	e28db000 	add	fp, sp, #0
    83f4:	e24dd00c 	sub	sp, sp, #12
    83f8:	e50b0008 	str	r0, [fp, #-8]
    83fc:	e51b3008 	ldr	r3, [fp, #-8]
    8400:	e3a02012 	mov	r2, #18
    8404:	e5832000 	str	r2, [r3]
    8408:	e28bd000 	add	sp, fp, #0
    840c:	e8bd0800 	pop	{fp}
    8410:	e12fff1e 	bx	lr

00008414 <B>:
    8414:	e92d4800 	push	{fp, lr}
    8418:	e28db004 	add	fp, sp, #4
    841c:	e24dd008 	sub	sp, sp, #8
    8420:	e50b0008 	str	r0, [fp, #-8]
    8424:	e51b0008 	ldr	r0, [fp, #-8]
    8428:	ebffffef 	bl	83ec <C>
    842c:	e24bd004 	sub	sp, fp, #4
    8430:	e8bd4800 	pop	{fp, lr}
    8434:	e12fff1e 	bx	lr

00008438 <A>:
    8438:	e92d4800 	push	{fp, lr}
    843c:	e28db004 	add	fp, sp, #4
    8440:	e24dd008 	sub	sp, sp, #8
    8444:	e50b0008 	str	r0, [fp, #-8]
    8448:	e51b0008 	ldr	r0, [fp, #-8]
    844c:	ebfffff0 	bl	8414 <B>
    8450:	e24bd004 	sub	sp, fp, #4
    8454:	e8bd4800 	pop	{fp, lr}
    8458:	e12fff1e 	bx	lr

0000845c <A2>:
    845c:	e92d4800 	push	{fp, lr}
    8460:	e28db004 	add	fp, sp, #4
    8464:	e24dd008 	sub	sp, sp, #8
    8468:	e50b0008 	str	r0, [fp, #-8]
    846c:	e51b0008 	ldr	r0, [fp, #-8]
    8470:	ebffffdd 	bl	83ec <C>
    8474:	e24bd004 	sub	sp, fp, #4
    8478:	e8bd4800 	pop	{fp, lr}
    847c:	e12fff1e 	bx	lr

00008480 <main>:
    8480:	e92d4800 	push	{fp, lr}
    8484:	e28db004 	add	fp, sp, #4
    8488:	e24dd010 	sub	sp, sp, #16
    848c:	e50b0010 	str	r0, [fp, #-16]
    8490:	e50b1014 	str	r1, [fp, #-20]
    8494:	e3a03000 	mov	r3, #0
    8498:	e50b3008 	str	r3, [fp, #-8]
    849c:	e24b300c 	sub	r3, fp, #12
    84a0:	e1a00003 	mov	r0, r3
    84a4:	ebffffec 	bl	845c <A2>
    84a8:	e59f2028 	ldr	r2, [pc, #40]	; 84d8 <main+0x58>
    84ac:	e51b300c 	ldr	r3, [fp, #-12]
    84b0:	e1a00002 	mov	r0, r2
    84b4:	e1a01003 	mov	r1, r3
    84b8:	ebffff9b 	bl	832c <_init+0x48>
    84bc:	e51b0008 	ldr	r0, [fp, #-8]
    84c0:	ebffffdc 	bl	8438 <A>
    84c4:	e3a03000 	mov	r3, #0
    84c8:	e1a00003 	mov	r0, r3
    84cc:	e24bd004 	sub	sp, fp, #4
    84d0:	e8bd4800 	pop	{fp, lr}
    84d4:	e12fff1e 	bx	lr
    84d8:	00008560 	andeq	r8, r0, r0, ror #10

000084dc <__libc_csu_fini>:
    84dc:	e12fff1e 	bx	lr

000084e0 <__libc_csu_init>:
    84e0:	e92d47f0 	push	{r4, r5, r6, r7, r8, r9, sl, lr}
    84e4:	e59fa058 	ldr	sl, [pc, #88]	; 8544 <__libc_csu_init+0x64>
    84e8:	e59f5058 	ldr	r5, [pc, #88]	; 8548 <__libc_csu_init+0x68>
    84ec:	e1a06000 	mov	r6, r0
    84f0:	e1a07001 	mov	r7, r1
    84f4:	e1a08002 	mov	r8, r2
    84f8:	ebffff79 	bl	82e4 <_init>
    84fc:	e59f3048 	ldr	r3, [pc, #72]	; 854c <__libc_csu_init+0x6c>
    8500:	e06a5005 	rsb	r5, sl, r5
    8504:	e08f3003 	add	r3, pc, r3
    8508:	e1b05145 	asrs	r5, r5, #2
    850c:	e083a00a 	add	sl, r3, sl
    8510:	0a000009 	beq	853c <__libc_csu_init+0x5c>
    8514:	e3a04000 	mov	r4, #0
    8518:	e1a00006 	mov	r0, r6
    851c:	e1a01007 	mov	r1, r7
    8520:	e1a02008 	mov	r2, r8
    8524:	e79ac104 	ldr	ip, [sl, r4, lsl #2]
    8528:	e1a0e00f 	mov	lr, pc
    852c:	e12fff1c 	bx	ip
    8530:	e2844001 	add	r4, r4, #1
    8534:	e1540005 	cmp	r4, r5
    8538:	3afffff6 	bcc	8518 <__libc_csu_init+0x38>
    853c:	e8bd47f0 	pop	{r4, r5, r6, r7, r8, r9, sl, lr}
    8540:	e12fff1e 	bx	lr
    8544:	ffffff04 	undefined instruction 0xffffff04
    8548:	ffffff08 	undefined instruction 0xffffff08
    854c:	00008af4 	strdeq	r8, [r0], -r4

Disassembly of section .fini:

00008550 <_fini>:
    8550:	e92d4010 	push	{r4, lr}
    8554:	e8bd4010 	pop	{r4, lr}
    8558:	e12fff1e 	bx	lr
